target datalayout = "e-m:e-p270:32:32-p271:32:32-p272:64:64-i64:64-i128:128-f80:128-n8:16:32:64-S128"
target triple = "x86_64-pc-linux-gnu"

; Function Attrs: nounwind uwtable
define void @DES_ede3_cfb64_encrypt(ptr noundef %0, ptr noundef %1, i64 noundef %2, ptr noundef %3, ptr noundef %4, ptr noundef %5, ptr noundef %6, ptr noundef %7, i32 noundef %8) #0 {
  %10 = alloca ptr, align 8
  %11 = alloca ptr, align 8
  %12 = alloca i64, align 8
  %13 = alloca ptr, align 8
  %14 = alloca ptr, align 8
  %15 = alloca ptr, align 8
  %16 = alloca ptr, align 8
  %17 = alloca ptr, align 8
  %18 = alloca i32, align 4
  %19 = alloca i32, align 4
  %20 = alloca i32, align 4
  %21 = alloca i64, align 8
  %22 = alloca i32, align 4
  %23 = alloca [2 x i32], align 4
  %24 = alloca ptr, align 8
  %25 = alloca i8, align 1
  %26 = alloca i8, align 1
  store ptr %0, ptr %10, align 8, !tbaa !3
  store ptr %1, ptr %11, align 8, !tbaa !3
  store i64 %2, ptr %12, align 8, !tbaa !8
  store ptr %3, ptr %13, align 8, !tbaa !10
  store ptr %4, ptr %14, align 8, !tbaa !10
  store ptr %5, ptr %15, align 8, !tbaa !10
  store ptr %6, ptr %16, align 8, !tbaa !3
  store ptr %7, ptr %17, align 8, !tbaa !12
  store i32 %8, ptr %18, align 4, !tbaa !14
  call void @llvm.lifetime.start.p0(i64 4, ptr %19) #4
  call void @llvm.lifetime.start.p0(i64 4, ptr %20) #4
  call void @llvm.lifetime.start.p0(i64 8, ptr %21) #4
  %27 = load i64, ptr %12, align 8, !tbaa !8
  store i64 %27, ptr %21, align 8, !tbaa !8
  call void @llvm.lifetime.start.p0(i64 4, ptr %22) #4
  %28 = load ptr, ptr %17, align 8, !tbaa !12
  %29 = load i32, ptr %28, align 4, !tbaa !14
  store i32 %29, ptr %22, align 4, !tbaa !14
  call void @llvm.lifetime.start.p0(i64 8, ptr %23) #4
  call void @llvm.lifetime.start.p0(i64 8, ptr %24) #4
  call void @llvm.lifetime.start.p0(i64 1, ptr %25) #4
  call void @llvm.lifetime.start.p0(i64 1, ptr %26) #4
  %30 = load ptr, ptr %16, align 8, !tbaa !3
  %31 = getelementptr inbounds [8 x i8], ptr %30, i64 0, i64 0
  store ptr %31, ptr %24, align 8, !tbaa !3
  %32 = load i32, ptr %18, align 4, !tbaa !14
  %33 = icmp ne i32 %32, 0
  br i1 %33, label %34, label %180

34:                                               ; preds = %9
  br label %35

35:                                               ; preds = %155, %34
  %36 = load i64, ptr %21, align 8, !tbaa !8
  %37 = add nsw i64 %36, -1
  store i64 %37, ptr %21, align 8, !tbaa !8
  %38 = icmp ne i64 %36, 0
  br i1 %38, label %39, label %179

39:                                               ; preds = %35
  %40 = load i32, ptr %22, align 4, !tbaa !14
  %41 = icmp eq i32 %40, 0
  br i1 %41, label %42, label %155

42:                                               ; preds = %39
  %43 = load ptr, ptr %24, align 8, !tbaa !3
  %44 = getelementptr inbounds nuw i8, ptr %43, i32 1
  store ptr %44, ptr %24, align 8, !tbaa !3
  %45 = load i8, ptr %43, align 1, !tbaa !16
  %46 = zext i8 %45 to i32
  store i32 %46, ptr %19, align 4, !tbaa !14
  %47 = load ptr, ptr %24, align 8, !tbaa !3
  %48 = getelementptr inbounds nuw i8, ptr %47, i32 1
  store ptr %48, ptr %24, align 8, !tbaa !3
  %49 = load i8, ptr %47, align 1, !tbaa !16
  %50 = zext i8 %49 to i32
  %51 = shl i32 %50, 8
  %52 = load i32, ptr %19, align 4, !tbaa !14
  %53 = or i32 %52, %51
  store i32 %53, ptr %19, align 4, !tbaa !14
  %54 = load ptr, ptr %24, align 8, !tbaa !3
  %55 = getelementptr inbounds nuw i8, ptr %54, i32 1
  store ptr %55, ptr %24, align 8, !tbaa !3
  %56 = load i8, ptr %54, align 1, !tbaa !16
  %57 = zext i8 %56 to i32
  %58 = shl i32 %57, 16
  %59 = load i32, ptr %19, align 4, !tbaa !14
  %60 = or i32 %59, %58
  store i32 %60, ptr %19, align 4, !tbaa !14
  %61 = load ptr, ptr %24, align 8, !tbaa !3
  %62 = getelementptr inbounds nuw i8, ptr %61, i32 1
  store ptr %62, ptr %24, align 8, !tbaa !3
  %63 = load i8, ptr %61, align 1, !tbaa !16
  %64 = zext i8 %63 to i32
  %65 = shl i32 %64, 24
  %66 = load i32, ptr %19, align 4, !tbaa !14
  %67 = or i32 %66, %65
  store i32 %67, ptr %19, align 4, !tbaa !14
  %68 = load ptr, ptr %24, align 8, !tbaa !3
  %69 = getelementptr inbounds nuw i8, ptr %68, i32 1
  store ptr %69, ptr %24, align 8, !tbaa !3
  %70 = load i8, ptr %68, align 1, !tbaa !16
  %71 = zext i8 %70 to i32
  store i32 %71, ptr %20, align 4, !tbaa !14
  %72 = load ptr, ptr %24, align 8, !tbaa !3
  %73 = getelementptr inbounds nuw i8, ptr %72, i32 1
  store ptr %73, ptr %24, align 8, !tbaa !3
  %74 = load i8, ptr %72, align 1, !tbaa !16
  %75 = zext i8 %74 to i32
  %76 = shl i32 %75, 8
  %77 = load i32, ptr %20, align 4, !tbaa !14
  %78 = or i32 %77, %76
  store i32 %78, ptr %20, align 4, !tbaa !14
  %79 = load ptr, ptr %24, align 8, !tbaa !3
  %80 = getelementptr inbounds nuw i8, ptr %79, i32 1
  store ptr %80, ptr %24, align 8, !tbaa !3
  %81 = load i8, ptr %79, align 1, !tbaa !16
  %82 = zext i8 %81 to i32
  %83 = shl i32 %82, 16
  %84 = load i32, ptr %20, align 4, !tbaa !14
  %85 = or i32 %84, %83
  store i32 %85, ptr %20, align 4, !tbaa !14
  %86 = load ptr, ptr %24, align 8, !tbaa !3
  %87 = getelementptr inbounds nuw i8, ptr %86, i32 1
  store ptr %87, ptr %24, align 8, !tbaa !3
  %88 = load i8, ptr %86, align 1, !tbaa !16
  %89 = zext i8 %88 to i32
  %90 = shl i32 %89, 24
  %91 = load i32, ptr %20, align 4, !tbaa !14
  %92 = or i32 %91, %90
  store i32 %92, ptr %20, align 4, !tbaa !14
  %93 = load i32, ptr %19, align 4, !tbaa !14
  %94 = getelementptr inbounds [2 x i32], ptr %23, i64 0, i64 0
  store i32 %93, ptr %94, align 4, !tbaa !14
  %95 = load i32, ptr %20, align 4, !tbaa !14
  %96 = getelementptr inbounds [2 x i32], ptr %23, i64 0, i64 1
  store i32 %95, ptr %96, align 4, !tbaa !14
  %97 = getelementptr inbounds [2 x i32], ptr %23, i64 0, i64 0
  %98 = load ptr, ptr %13, align 8, !tbaa !10
  %99 = load ptr, ptr %14, align 8, !tbaa !10
  %100 = load ptr, ptr %15, align 8, !tbaa !10
  call void @DES_encrypt3(ptr noundef %97, ptr noundef %98, ptr noundef %99, ptr noundef %100)
  %101 = getelementptr inbounds [2 x i32], ptr %23, i64 0, i64 0
  %102 = load i32, ptr %101, align 4, !tbaa !14
  store i32 %102, ptr %19, align 4, !tbaa !14
  %103 = getelementptr inbounds [2 x i32], ptr %23, i64 0, i64 1
  %104 = load i32, ptr %103, align 4, !tbaa !14
  store i32 %104, ptr %20, align 4, !tbaa !14
  %105 = load ptr, ptr %16, align 8, !tbaa !3
  %106 = getelementptr inbounds [8 x i8], ptr %105, i64 0, i64 0
  store ptr %106, ptr %24, align 8, !tbaa !3
  %107 = load i32, ptr %19, align 4, !tbaa !14
  %108 = and i32 %107, 255
  %109 = trunc i32 %108 to i8
  %110 = load ptr, ptr %24, align 8, !tbaa !3
  %111 = getelementptr inbounds nuw i8, ptr %110, i32 1
  store ptr %111, ptr %24, align 8, !tbaa !3
  store i8 %109, ptr %110, align 1, !tbaa !16
  %112 = load i32, ptr %19, align 4, !tbaa !14
  %113 = lshr i32 %112, 8
  %114 = and i32 %113, 255
  %115 = trunc i32 %114 to i8
  %116 = load ptr, ptr %24, align 8, !tbaa !3
  %117 = getelementptr inbounds nuw i8, ptr %116, i32 1
  store ptr %117, ptr %24, align 8, !tbaa !3
  store i8 %115, ptr %116, align 1, !tbaa !16
  %118 = load i32, ptr %19, align 4, !tbaa !14
  %119 = lshr i32 %118, 16
  %120 = and i32 %119, 255
  %121 = trunc i32 %120 to i8
  %122 = load ptr, ptr %24, align 8, !tbaa !3
  %123 = getelementptr inbounds nuw i8, ptr %122, i32 1
  store ptr %123, ptr %24, align 8, !tbaa !3
  store i8 %121, ptr %122, align 1, !tbaa !16
  %124 = load i32, ptr %19, align 4, !tbaa !14
  %125 = lshr i32 %124, 24
  %126 = and i32 %125, 255
  %127 = trunc i32 %126 to i8
  %128 = load ptr, ptr %24, align 8, !tbaa !3
  %129 = getelementptr inbounds nuw i8, ptr %128, i32 1
  store ptr %129, ptr %24, align 8, !tbaa !3
  store i8 %127, ptr %128, align 1, !tbaa !16
  %130 = load i32, ptr %20, align 4, !tbaa !14
  %131 = and i32 %130, 255
  %132 = trunc i32 %131 to i8
  %133 = load ptr, ptr %24, align 8, !tbaa !3
  %134 = getelementptr inbounds nuw i8, ptr %133, i32 1
  store ptr %134, ptr %24, align 8, !tbaa !3
  store i8 %132, ptr %133, align 1, !tbaa !16
  %135 = load i32, ptr %20, align 4, !tbaa !14
  %136 = lshr i32 %135, 8
  %137 = and i32 %136, 255
  %138 = trunc i32 %137 to i8
  %139 = load ptr, ptr %24, align 8, !tbaa !3
  %140 = getelementptr inbounds nuw i8, ptr %139, i32 1
  store ptr %140, ptr %24, align 8, !tbaa !3
  store i8 %138, ptr %139, align 1, !tbaa !16
  %141 = load i32, ptr %20, align 4, !tbaa !14
  %142 = lshr i32 %141, 16
  %143 = and i32 %142, 255
  %144 = trunc i32 %143 to i8
  %145 = load ptr, ptr %24, align 8, !tbaa !3
  %146 = getelementptr inbounds nuw i8, ptr %145, i32 1
  store ptr %146, ptr %24, align 8, !tbaa !3
  store i8 %144, ptr %145, align 1, !tbaa !16
  %147 = load i32, ptr %20, align 4, !tbaa !14
  %148 = lshr i32 %147, 24
  %149 = and i32 %148, 255
  %150 = trunc i32 %149 to i8
  %151 = load ptr, ptr %24, align 8, !tbaa !3
  %152 = getelementptr inbounds nuw i8, ptr %151, i32 1
  store ptr %152, ptr %24, align 8, !tbaa !3
  store i8 %150, ptr %151, align 1, !tbaa !16
  %153 = load ptr, ptr %16, align 8, !tbaa !3
  %154 = getelementptr inbounds [8 x i8], ptr %153, i64 0, i64 0
  store ptr %154, ptr %24, align 8, !tbaa !3
  br label %155

155:                                              ; preds = %42, %39
  %156 = load ptr, ptr %10, align 8, !tbaa !3
  %157 = getelementptr inbounds nuw i8, ptr %156, i32 1
  store ptr %157, ptr %10, align 8, !tbaa !3
  %158 = load i8, ptr %156, align 1, !tbaa !16
  %159 = zext i8 %158 to i32
  %160 = load ptr, ptr %24, align 8, !tbaa !3
  %161 = load i32, ptr %22, align 4, !tbaa !14
  %162 = sext i32 %161 to i64
  %163 = getelementptr inbounds i8, ptr %160, i64 %162
  %164 = load i8, ptr %163, align 1, !tbaa !16
  %165 = zext i8 %164 to i32
  %166 = xor i32 %159, %165
  %167 = trunc i32 %166 to i8
  store i8 %167, ptr %25, align 1, !tbaa !16
  %168 = load i8, ptr %25, align 1, !tbaa !16
  %169 = load ptr, ptr %11, align 8, !tbaa !3
  %170 = getelementptr inbounds nuw i8, ptr %169, i32 1
  store ptr %170, ptr %11, align 8, !tbaa !3
  store i8 %168, ptr %169, align 1, !tbaa !16
  %171 = load i8, ptr %25, align 1, !tbaa !16
  %172 = load ptr, ptr %24, align 8, !tbaa !3
  %173 = load i32, ptr %22, align 4, !tbaa !14
  %174 = sext i32 %173 to i64
  %175 = getelementptr inbounds i8, ptr %172, i64 %174
  store i8 %171, ptr %175, align 1, !tbaa !16
  %176 = load i32, ptr %22, align 4, !tbaa !14
  %177 = add nsw i32 %176, 1
  %178 = and i32 %177, 7
  store i32 %178, ptr %22, align 4, !tbaa !14
  br label %35, !llvm.loop !17

179:                                              ; preds = %35
  br label %327

180:                                              ; preds = %9
  br label %181

181:                                              ; preds = %301, %180
  %182 = load i64, ptr %21, align 8, !tbaa !8
  %183 = add nsw i64 %182, -1
  store i64 %183, ptr %21, align 8, !tbaa !8
  %184 = icmp ne i64 %182, 0
  br i1 %184, label %185, label %326

185:                                              ; preds = %181
  %186 = load i32, ptr %22, align 4, !tbaa !14
  %187 = icmp eq i32 %186, 0
  br i1 %187, label %188, label %301

188:                                              ; preds = %185
  %189 = load ptr, ptr %24, align 8, !tbaa !3
  %190 = getelementptr inbounds nuw i8, ptr %189, i32 1
  store ptr %190, ptr %24, align 8, !tbaa !3
  %191 = load i8, ptr %189, align 1, !tbaa !16
  %192 = zext i8 %191 to i32
  store i32 %192, ptr %19, align 4, !tbaa !14
  %193 = load ptr, ptr %24, align 8, !tbaa !3
  %194 = getelementptr inbounds nuw i8, ptr %193, i32 1
  store ptr %194, ptr %24, align 8, !tbaa !3
  %195 = load i8, ptr %193, align 1, !tbaa !16
  %196 = zext i8 %195 to i32
  %197 = shl i32 %196, 8
  %198 = load i32, ptr %19, align 4, !tbaa !14
  %199 = or i32 %198, %197
  store i32 %199, ptr %19, align 4, !tbaa !14
  %200 = load ptr, ptr %24, align 8, !tbaa !3
  %201 = getelementptr inbounds nuw i8, ptr %200, i32 1
  store ptr %201, ptr %24, align 8, !tbaa !3
  %202 = load i8, ptr %200, align 1, !tbaa !16
  %203 = zext i8 %202 to i32
  %204 = shl i32 %203, 16
  %205 = load i32, ptr %19, align 4, !tbaa !14
  %206 = or i32 %205, %204
  store i32 %206, ptr %19, align 4, !tbaa !14
  %207 = load ptr, ptr %24, align 8, !tbaa !3
  %208 = getelementptr inbounds nuw i8, ptr %207, i32 1
  store ptr %208, ptr %24, align 8, !tbaa !3
  %209 = load i8, ptr %207, align 1, !tbaa !16
  %210 = zext i8 %209 to i32
  %211 = shl i32 %210, 24
  %212 = load i32, ptr %19, align 4, !tbaa !14
  %213 = or i32 %212, %211
  store i32 %213, ptr %19, align 4, !tbaa !14
  %214 = load ptr, ptr %24, align 8, !tbaa !3
  %215 = getelementptr inbounds nuw i8, ptr %214, i32 1
  store ptr %215, ptr %24, align 8, !tbaa !3
  %216 = load i8, ptr %214, align 1, !tbaa !16
  %217 = zext i8 %216 to i32
  store i32 %217, ptr %20, align 4, !tbaa !14
  %218 = load ptr, ptr %24, align 8, !tbaa !3
  %219 = getelementptr inbounds nuw i8, ptr %218, i32 1
  store ptr %219, ptr %24, align 8, !tbaa !3
  %220 = load i8, ptr %218, align 1, !tbaa !16
  %221 = zext i8 %220 to i32
  %222 = shl i32 %221, 8
  %223 = load i32, ptr %20, align 4, !tbaa !14
  %224 = or i32 %223, %222
  store i32 %224, ptr %20, align 4, !tbaa !14
  %225 = load ptr, ptr %24, align 8, !tbaa !3
  %226 = getelementptr inbounds nuw i8, ptr %225, i32 1
  store ptr %226, ptr %24, align 8, !tbaa !3
  %227 = load i8, ptr %225, align 1, !tbaa !16
  %228 = zext i8 %227 to i32
  %229 = shl i32 %228, 16
  %230 = load i32, ptr %20, align 4, !tbaa !14
  %231 = or i32 %230, %229
  store i32 %231, ptr %20, align 4, !tbaa !14
  %232 = load ptr, ptr %24, align 8, !tbaa !3
  %233 = getelementptr inbounds nuw i8, ptr %232, i32 1
  store ptr %233, ptr %24, align 8, !tbaa !3
  %234 = load i8, ptr %232, align 1, !tbaa !16
  %235 = zext i8 %234 to i32
  %236 = shl i32 %235, 24
  %237 = load i32, ptr %20, align 4, !tbaa !14
  %238 = or i32 %237, %236
  store i32 %238, ptr %20, align 4, !tbaa !14
  %239 = load i32, ptr %19, align 4, !tbaa !14
  %240 = getelementptr inbounds [2 x i32], ptr %23, i64 0, i64 0
  store i32 %239, ptr %240, align 4, !tbaa !14
  %241 = load i32, ptr %20, align 4, !tbaa !14
  %242 = getelementptr inbounds [2 x i32], ptr %23, i64 0, i64 1
  store i32 %241, ptr %242, align 4, !tbaa !14
  %243 = getelementptr inbounds [2 x i32], ptr %23, i64 0, i64 0
  %244 = load ptr, ptr %13, align 8, !tbaa !10
  %245 = load ptr, ptr %14, align 8, !tbaa !10
  %246 = load ptr, ptr %15, align 8, !tbaa !10
  call void @DES_encrypt3(ptr noundef %243, ptr noundef %244, ptr noundef %245, ptr noundef %246)
  %247 = getelementptr inbounds [2 x i32], ptr %23, i64 0, i64 0
  %248 = load i32, ptr %247, align 4, !tbaa !14
  store i32 %248, ptr %19, align 4, !tbaa !14
  %249 = getelementptr inbounds [2 x i32], ptr %23, i64 0, i64 1
  %250 = load i32, ptr %249, align 4, !tbaa !14
  store i32 %250, ptr %20, align 4, !tbaa !14
  %251 = load ptr, ptr %16, align 8, !tbaa !3
  %252 = getelementptr inbounds [8 x i8], ptr %251, i64 0, i64 0
  store ptr %252, ptr %24, align 8, !tbaa !3
  %253 = load i32, ptr %19, align 4, !tbaa !14
  %254 = and i32 %253, 255
  %255 = trunc i32 %254 to i8
  %256 = load ptr, ptr %24, align 8, !tbaa !3
  %257 = getelementptr inbounds nuw i8, ptr %256, i32 1
  store ptr %257, ptr %24, align 8, !tbaa !3
  store i8 %255, ptr %256, align 1, !tbaa !16
  %258 = load i32, ptr %19, align 4, !tbaa !14
  %259 = lshr i32 %258, 8
  %260 = and i32 %259, 255
  %261 = trunc i32 %260 to i8
  %262 = load ptr, ptr %24, align 8, !tbaa !3
  %263 = getelementptr inbounds nuw i8, ptr %262, i32 1
  store ptr %263, ptr %24, align 8, !tbaa !3
  store i8 %261, ptr %262, align 1, !tbaa !16
  %264 = load i32, ptr %19, align 4, !tbaa !14
  %265 = lshr i32 %264, 16
  %266 = and i32 %265, 255
  %267 = trunc i32 %266 to i8
  %268 = load ptr, ptr %24, align 8, !tbaa !3
  %269 = getelementptr inbounds nuw i8, ptr %268, i32 1
  store ptr %269, ptr %24, align 8, !tbaa !3
  store i8 %267, ptr %268, align 1, !tbaa !16
  %270 = load i32, ptr %19, align 4, !tbaa !14
  %271 = lshr i32 %270, 24
  %272 = and i32 %271, 255
  %273 = trunc i32 %272 to i8
  %274 = load ptr, ptr %24, align 8, !tbaa !3
  %275 = getelementptr inbounds nuw i8, ptr %274, i32 1
  store ptr %275, ptr %24, align 8, !tbaa !3
  store i8 %273, ptr %274, align 1, !tbaa !16
  %276 = load i32, ptr %20, align 4, !tbaa !14
  %277 = and i32 %276, 255
  %278 = trunc i32 %277 to i8
  %279 = load ptr, ptr %24, align 8, !tbaa !3
  %280 = getelementptr inbounds nuw i8, ptr %279, i32 1
  store ptr %280, ptr %24, align 8, !tbaa !3
  store i8 %278, ptr %279, align 1, !tbaa !16
  %281 = load i32, ptr %20, align 4, !tbaa !14
  %282 = lshr i32 %281, 8
  %283 = and i32 %282, 255
  %284 = trunc i32 %283 to i8
  %285 = load ptr, ptr %24, align 8, !tbaa !3
  %286 = getelementptr inbounds nuw i8, ptr %285, i32 1
  store ptr %286, ptr %24, align 8, !tbaa !3
  store i8 %284, ptr %285, align 1, !tbaa !16
  %287 = load i32, ptr %20, align 4, !tbaa !14
  %288 = lshr i32 %287, 16
  %289 = and i32 %288, 255
  %290 = trunc i32 %289 to i8
  %291 = load ptr, ptr %24, align 8, !tbaa !3
  %292 = getelementptr inbounds nuw i8, ptr %291, i32 1
  store ptr %292, ptr %24, align 8, !tbaa !3
  store i8 %290, ptr %291, align 1, !tbaa !16
  %293 = load i32, ptr %20, align 4, !tbaa !14
  %294 = lshr i32 %293, 24
  %295 = and i32 %294, 255
  %296 = trunc i32 %295 to i8
  %297 = load ptr, ptr %24, align 8, !tbaa !3
  %298 = getelementptr inbounds nuw i8, ptr %297, i32 1
  store ptr %298, ptr %24, align 8, !tbaa !3
  store i8 %296, ptr %297, align 1, !tbaa !16
  %299 = load ptr, ptr %16, align 8, !tbaa !3
  %300 = getelementptr inbounds [8 x i8], ptr %299, i64 0, i64 0
  store ptr %300, ptr %24, align 8, !tbaa !3
  br label %301

301:                                              ; preds = %188, %185
  %302 = load ptr, ptr %10, align 8, !tbaa !3
  %303 = getelementptr inbounds nuw i8, ptr %302, i32 1
  store ptr %303, ptr %10, align 8, !tbaa !3
  %304 = load i8, ptr %302, align 1, !tbaa !16
  store i8 %304, ptr %26, align 1, !tbaa !16
  %305 = load ptr, ptr %24, align 8, !tbaa !3
  %306 = load i32, ptr %22, align 4, !tbaa !14
  %307 = sext i32 %306 to i64
  %308 = getelementptr inbounds i8, ptr %305, i64 %307
  %309 = load i8, ptr %308, align 1, !tbaa !16
  store i8 %309, ptr %25, align 1, !tbaa !16
  %310 = load i8, ptr %26, align 1, !tbaa !16
  %311 = load ptr, ptr %24, align 8, !tbaa !3
  %312 = load i32, ptr %22, align 4, !tbaa !14
  %313 = sext i32 %312 to i64
  %314 = getelementptr inbounds i8, ptr %311, i64 %313
  store i8 %310, ptr %314, align 1, !tbaa !16
  %315 = load i8, ptr %25, align 1, !tbaa !16
  %316 = zext i8 %315 to i32
  %317 = load i8, ptr %26, align 1, !tbaa !16
  %318 = zext i8 %317 to i32
  %319 = xor i32 %316, %318
  %320 = trunc i32 %319 to i8
  %321 = load ptr, ptr %11, align 8, !tbaa !3
  %322 = getelementptr inbounds nuw i8, ptr %321, i32 1
  store ptr %322, ptr %11, align 8, !tbaa !3
  store i8 %320, ptr %321, align 1, !tbaa !16
  %323 = load i32, ptr %22, align 4, !tbaa !14
  %324 = add nsw i32 %323, 1
  %325 = and i32 %324, 7
  store i32 %325, ptr %22, align 4, !tbaa !14
  br label %181, !llvm.loop !19

326:                                              ; preds = %181
  br label %327

327:                                              ; preds = %326, %179
  store i8 0, ptr %26, align 1, !tbaa !16
  store i8 0, ptr %25, align 1, !tbaa !16
  %328 = getelementptr inbounds [2 x i32], ptr %23, i64 0, i64 1
  store i32 0, ptr %328, align 4, !tbaa !14
  %329 = getelementptr inbounds [2 x i32], ptr %23, i64 0, i64 0
  store i32 0, ptr %329, align 4, !tbaa !14
  store i32 0, ptr %20, align 4, !tbaa !14
  store i32 0, ptr %19, align 4, !tbaa !14
  %330 = load i32, ptr %22, align 4, !tbaa !14
  %331 = load ptr, ptr %17, align 8, !tbaa !12
  store i32 %330, ptr %331, align 4, !tbaa !14
  call void @llvm.lifetime.end.p0(i64 1, ptr %26) #4
  call void @llvm.lifetime.end.p0(i64 1, ptr %25) #4
  call void @llvm.lifetime.end.p0(i64 8, ptr %24) #4
  call void @llvm.lifetime.end.p0(i64 8, ptr %23) #4
  call void @llvm.lifetime.end.p0(i64 4, ptr %22) #4
  call void @llvm.lifetime.end.p0(i64 8, ptr %21) #4
  call void @llvm.lifetime.end.p0(i64 4, ptr %20) #4
  call void @llvm.lifetime.end.p0(i64 4, ptr %19) #4
  ret void
}